target datalayout = "e-m:e-p270:32:32-p271:32:32-p272:64:64-i64:64-i128:128-f80:128-n8:16:32:64-S128"
target triple = "x86_64-unknown-linux-gnu"

%struct.Visitor = type { ptr, ptr, ptr, ptr, ptr, ptr, ptr, ptr, ptr, ptr, ptr, ptr, ptr, ptr, ptr, ptr, ptr, ptr, ptr, ptr, i32, %struct.CompatPolicy, ptr, ptr }
%struct.CompatPolicy = type { i8, i32, i8, i32, i8, i32, i8, i32 }
%struct.timeval = type { i64, i64 }

@.str.1 = private unnamed_addr constant [31 x i8] c"../qemu/qapi/qapi-visit-core.c\00", align 1
@.str.15 = private unnamed_addr constant [8 x i8] c"int16_t\00", align 1
@trace_events_enabled_count = external global i32, align 4
@message_with_timestamp = external global i8, align 1
@qemu_loglevel = external global i32, align 4
@.str.52 = private unnamed_addr constant [25 x i8] c"v->type == VISITOR_INPUT\00", align 1
@.str.53 = private unnamed_addr constant [26 x i8] c"Parameter '%s' expects %s\00", align 1
@.str.54 = private unnamed_addr constant [5 x i8] c"null\00", align 1
@.str.63 = private unnamed_addr constant [59 x i8] c"v->type == VISITOR_INPUT || (value >= min && value <= max)\00", align 1
@__PRETTY_FUNCTION__.visit_type_intN = private unnamed_addr constant [100 x i8] c"_Bool visit_type_intN(Visitor *, int64_t *, const char *, int64_t, int64_t, const char *, Error **)\00", align 1
@__func__.visit_type_intN = private unnamed_addr constant [16 x i8] c"visit_type_intN\00", align 1
@_TRACE_VISIT_TYPE_INT16_DSTATE = external global i16, align 2
@.str.64 = private unnamed_addr constant [51 x i8] c"%d@%zu.%06zu:visit_type_int16 v=%p name=%s obj=%p\0A\00", align 1
@.str.65 = private unnamed_addr constant [38 x i8] c"visit_type_int16 v=%p name=%s obj=%p\0A\00", align 1

; Function Attrs: nounwind sspstrong uwtable
define internal zeroext i1 @qemu_loglevel_mask(i32 noundef %mask) #0 {
entry:
  %mask.addr = alloca i32, align 4
  store i32 %mask, ptr %mask.addr, align 4
  %0 = load i32, ptr @qemu_loglevel, align 4
  %1 = load i32, ptr %mask.addr, align 4
  %and = and i32 %0, %1
  %cmp = icmp ne i32 %and, 0
  ret i1 %cmp
}

; Function Attrs: nounwind sspstrong uwtable
define internal void @_nocheck__trace_visit_type_int16(ptr noundef %v, ptr noundef %name, ptr noundef %obj) #0 {
entry:
  %v.addr = alloca ptr, align 8
  %name.addr = alloca ptr, align 8
  %obj.addr = alloca ptr, align 8
  %_now = alloca %struct.timeval, align 8
  store ptr %v, ptr %v.addr, align 8
  store ptr %name, ptr %name.addr, align 8
  store ptr %obj, ptr %obj.addr, align 8
  %0 = load i32, ptr @trace_events_enabled_count, align 4
  %tobool = icmp ne i32 %0, 0
  %lnot = xor i1 %tobool, true
  %lnot1 = xor i1 %lnot, true
  %lnot.ext = zext i1 %lnot1 to i32
  %conv = sext i32 %lnot.ext to i64
  %tobool2 = icmp ne i64 %conv, 0
  br i1 %tobool2, label %land.lhs.true, label %if.end11

land.lhs.true:                                    ; preds = %entry
  %1 = load i16, ptr @_TRACE_VISIT_TYPE_INT16_DSTATE, align 2
  %conv3 = zext i16 %1 to i32
  %tobool4 = icmp ne i32 %conv3, 0
  br i1 %tobool4, label %land.lhs.true5, label %if.end11

land.lhs.true5:                                   ; preds = %land.lhs.true
  %call = call zeroext i1 @qemu_loglevel_mask(i32 noundef 32768)
  br i1 %call, label %if.then, label %if.end11

if.then:                                          ; preds = %land.lhs.true5
  %2 = load i8, ptr @message_with_timestamp, align 1
  %tobool7 = trunc i8 %2 to i1
  br i1 %tobool7, label %if.then8, label %if.else

if.then8:                                         ; preds = %if.then
  %call9 = call i32 @gettimeofday(ptr noundef %_now, ptr noundef null) #6
  %call10 = call i32 @qemu_get_thread_id()
  %tv_sec = getelementptr inbounds %struct.timeval, ptr %_now, i32 0, i32 0
  %3 = load i64, ptr %tv_sec, align 8
  %tv_usec = getelementptr inbounds %struct.timeval, ptr %_now, i32 0, i32 1
  %4 = load i64, ptr %tv_usec, align 8
  %5 = load ptr, ptr %v.addr, align 8
  %6 = load ptr, ptr %name.addr, align 8
  %7 = load ptr, ptr %obj.addr, align 8
  call void (ptr, ...) @qemu_log(ptr noundef @.str.64, i32 noundef %call10, i64 noundef %3, i64 noundef %4, ptr noundef %5, ptr noundef %6, ptr noundef %7)
  br label %if.end

if.else:                                          ; preds = %if.then
  %8 = load ptr, ptr %v.addr, align 8
  %9 = load ptr, ptr %name.addr, align 8
  %10 = load ptr, ptr %obj.addr, align 8
  call void (ptr, ...) @qemu_log(ptr noundef @.str.65, ptr noundef %8, ptr noundef %9, ptr noundef %10)
  br label %if.end

if.end:                                           ; preds = %if.else, %if.then8
  br label %if.end11

if.end11:                                         ; preds = %if.end, %land.lhs.true5, %land.lhs.true, %entry
  ret void
}

; Function Attrs: nounwind sspstrong uwtable
define internal zeroext i1 @visit_type_intN(ptr noundef %v, ptr noundef %obj, ptr noundef %name, i64 noundef %min, i64 noundef %max, ptr noundef %type, ptr noundef %errp) #0 {
entry:
  %retval = alloca i1, align 1
  %v.addr = alloca ptr, align 8
  %obj.addr = alloca ptr, align 8
  %name.addr = alloca ptr, align 8
  %min.addr = alloca i64, align 8
  %max.addr = alloca i64, align 8
  %type.addr = alloca ptr, align 8
  %errp.addr = alloca ptr, align 8
  %value = alloca i64, align 8
  store ptr %v, ptr %v.addr, align 8
  store ptr %obj, ptr %obj.addr, align 8
  store ptr %name, ptr %name.addr, align 8
  store i64 %min, ptr %min.addr, align 8
  store i64 %max, ptr %max.addr, align 8
  store ptr %type, ptr %type.addr, align 8
  store ptr %errp, ptr %errp.addr, align 8
  %0 = load ptr, ptr %obj.addr, align 8
  %1 = load i64, ptr %0, align 8
  store i64 %1, ptr %value, align 8
  %2 = load ptr, ptr %v.addr, align 8
  %type1 = getelementptr inbounds %struct.Visitor, ptr %2, i32 0, i32 20
  %3 = load i32, ptr %type1, align 8
  %cmp = icmp eq i32 %3, 1
  br i1 %cmp, label %if.then, label %lor.lhs.false

lor.lhs.false:                                    ; preds = %entry
  %4 = load i64, ptr %value, align 8
  %5 = load i64, ptr %min.addr, align 8
  %cmp2 = icmp sge i64 %4, %5
  br i1 %cmp2, label %land.lhs.true, label %if.else

land.lhs.true:                                    ; preds = %lor.lhs.false
  %6 = load i64, ptr %value, align 8
  %7 = load i64, ptr %max.addr, align 8
  %cmp3 = icmp sle i64 %6, %7
  br i1 %cmp3, label %if.then, label %if.else

if.then:                                          ; preds = %land.lhs.true, %entry
  br label %if.end

if.else:                                          ; preds = %land.lhs.true, %lor.lhs.false
  call void @__assert_fail(ptr noundef @.str.63, ptr noundef @.str.1, i32 noundef 258, ptr noundef @__PRETTY_FUNCTION__.visit_type_intN) #5
  unreachable

if.end:                                           ; preds = %if.then
  %8 = load ptr, ptr %v.addr, align 8
  %type_int64 = getelementptr inbounds %struct.Visitor, ptr %8, i32 0, i32 9
  %9 = load ptr, ptr %type_int64, align 8
  %10 = load ptr, ptr %v.addr, align 8
  %11 = load ptr, ptr %name.addr, align 8
  %12 = load ptr, ptr %errp.addr, align 8
  %call = call zeroext i1 %9(ptr noundef %10, ptr noundef %11, ptr noundef %value, ptr noundef %12)
  br i1 %call, label %if.end5, label %if.then4

if.then4:                                         ; preds = %if.end
  store i1 false, ptr %retval, align 1
  br label %return

if.end5:                                          ; preds = %if.end
  %13 = load i64, ptr %value, align 8
  %14 = load i64, ptr %min.addr, align 8
  %cmp6 = icmp slt i64 %13, %14
  br i1 %cmp6, label %if.then9, label %lor.lhs.false7

lor.lhs.false7:                                   ; preds = %if.end5
  %15 = load i64, ptr %value, align 8
  %16 = load i64, ptr %max.addr, align 8
  %cmp8 = icmp sgt i64 %15, %16
  br i1 %cmp8, label %if.then9, label %if.end15

if.then9:                                         ; preds = %lor.lhs.false7, %if.end5
  %17 = load ptr, ptr %v.addr, align 8
  %type10 = getelementptr inbounds %struct.Visitor, ptr %17, i32 0, i32 20
  %18 = load i32, ptr %type10, align 8
  %cmp11 = icmp eq i32 %18, 1
  br i1 %cmp11, label %if.then12, label %if.else13

if.then12:                                        ; preds = %if.then9
  br label %if.end14

if.else13:                                        ; preds = %if.then9
  call void @__assert_fail(ptr noundef @.str.52, ptr noundef @.str.1, i32 noundef 264, ptr noundef @__PRETTY_FUNCTION__.visit_type_intN) #5
  unreachable

if.end14:                                         ; preds = %if.then12
  %19 = load ptr, ptr %errp.addr, align 8
  %20 = load ptr, ptr %name.addr, align 8
  %tobool = icmp ne ptr %20, null
  br i1 %tobool, label %cond.true, label %cond.false

cond.true:                                        ; preds = %if.end14
  %21 = load ptr, ptr %name.addr, align 8
  br label %cond.end

cond.false:                                       ; preds = %if.end14
  br label %cond.end

cond.end:                                         ; preds = %cond.false, %cond.true
  %cond = phi ptr [ %21, %cond.true ], [ @.str.54, %cond.false ]
  %22 = load ptr, ptr %type.addr, align 8
  call void (ptr, ptr, i32, ptr, ptr, ...) @error_setg_internal(ptr noundef %19, ptr noundef @.str.1, i32 noundef 266, ptr noundef @__func__.visit_type_intN, ptr noundef @.str.53, ptr noundef %cond, ptr noundef %22)
  store i1 false, ptr %retval, align 1
  br label %return

if.end15:                                         ; preds = %lor.lhs.false7
  %23 = load i64, ptr %value, align 8
  %24 = load ptr, ptr %obj.addr, align 8
  store i64 %23, ptr %24, align 8
  store i1 true, ptr %retval, align 1
  br label %return

return:                                           ; preds = %if.end15, %cond.end, %if.then4
  %25 = load i1, ptr %retval, align 1
  ret i1 %25
}

; Function Attrs: nounwind sspstrong uwtable
define internal void @trace_visit_type_int16(ptr noundef %v, ptr noundef %name, ptr noundef %obj) #0 {
entry:
  %v.addr = alloca ptr, align 8
  %name.addr = alloca ptr, align 8
  %obj.addr = alloca ptr, align 8
  store ptr %v, ptr %v.addr, align 8
  store ptr %name, ptr %name.addr, align 8
  store ptr %obj, ptr %obj.addr, align 8
  %0 = load ptr, ptr %v.addr, align 8
  %1 = load ptr, ptr %name.addr, align 8
  %2 = load ptr, ptr %obj.addr, align 8
  call void @_nocheck__trace_visit_type_int16(ptr noundef %0, ptr noundef %1, ptr noundef %2)
  ret void
}

; Function Attrs: nounwind sspstrong uwtable
define dso_local zeroext i1 @visit_type_int16(ptr noundef %v, ptr noundef %name, ptr noundef %obj, ptr noundef %errp) #0 {
entry:
  %v.addr = alloca ptr, align 8
  %name.addr = alloca ptr, align 8
  %obj.addr = alloca ptr, align 8
  %errp.addr = alloca ptr, align 8
  %value = alloca i64, align 8
  %ok = alloca i8, align 1
  store ptr %v, ptr %v.addr, align 8
  store ptr %name, ptr %name.addr, align 8
  store ptr %obj, ptr %obj.addr, align 8
  store ptr %errp, ptr %errp.addr, align 8
  %0 = load ptr, ptr %v.addr, align 8
  %1 = load ptr, ptr %name.addr, align 8
  %2 = load ptr, ptr %obj.addr, align 8
  call void @trace_visit_type_int16(ptr noundef %0, ptr noundef %1, ptr noundef %2)
  %3 = load ptr, ptr %obj.addr, align 8
  %4 = load i16, ptr %3, align 2
  %conv = sext i16 %4 to i64
  store i64 %conv, ptr %value, align 8
  %5 = load ptr, ptr %v.addr, align 8
  %6 = load ptr, ptr %name.addr, align 8
  %7 = load ptr, ptr %errp.addr, align 8
  %call = call zeroext i1 @visit_type_intN(ptr noundef %5, ptr noundef %value, ptr noundef %6, i64 noundef -32768, i64 noundef 32767, ptr noundef @.str.15, ptr noundef %7)
  %frombool = zext i1 %call to i8
  store i8 %frombool, ptr %ok, align 1
  %8 = load i64, ptr %value, align 8
  %conv1 = trunc i64 %8 to i16
  %9 = load ptr, ptr %obj.addr, align 8
  store i16 %conv1, ptr %9, align 2
  %10 = load i8, ptr %ok, align 1
  %tobool = trunc i8 %10 to i1
  ret i1 %tobool
}