; Function Attrs: nounwind sspstrong uwtable
define dso_local noundef zeroext i1 @visit_type_int16(ptr noundef %v, ptr noundef %name, ptr noundef %obj, ptr noundef %errp) local_unnamed_addr #0 {
entry:
  %value.i = alloca i64, align 8
  %_now.i.i = alloca %struct.timeval, align 8
  call void @llvm.lifetime.start.p0(i64 16, ptr nonnull %_now.i.i)
  %0 = load i32, ptr @trace_events_enabled_count, align 4
  %tobool.i.i = icmp ne i32 %0, 0
  %1 = load i16, ptr @_TRACE_VISIT_TYPE_INT16_DSTATE, align 2
  %tobool4.i.i = icmp ne i16 %1, 0
  %or.cond.i.i = select i1 %tobool.i.i, i1 %tobool4.i.i, i1 false
  br i1 %or.cond.i.i, label %land.lhs.true5.i.i, label %trace_visit_type_int16.exit

land.lhs.true5.i.i:                               ; preds = %entry
  %2 = load i32, ptr @qemu_loglevel, align 4
  %and.i.i.i = and i32 %2, 32768
  %cmp.i.not.i.i = icmp eq i32 %and.i.i.i, 0
  br i1 %cmp.i.not.i.i, label %trace_visit_type_int16.exit, label %if.then.i.i

if.then.i.i:                                      ; preds = %land.lhs.true5.i.i
  %3 = load i8, ptr @message_with_timestamp, align 1
  %tobool7.i.i = trunc i8 %3 to i1
  br i1 %tobool7.i.i, label %if.then8.i.i, label %if.else.i.i

if.then8.i.i:                                     ; preds = %if.then.i.i
  %call9.i.i = call i32 @gettimeofday(ptr noundef nonnull %_now.i.i, ptr noundef null) #10
  %call10.i.i = tail call i32 @qemu_get_thread_id() #10
  %4 = load i64, ptr %_now.i.i, align 8
  %tv_usec.i.i = getelementptr inbounds nuw i8, ptr %_now.i.i, i64 8
  %5 = load i64, ptr %tv_usec.i.i, align 8
  tail call void (ptr, ...) @qemu_log(ptr noundef nonnull @.str.64, i32 noundef %call10.i.i, i64 noundef %4, i64 noundef %5, ptr noundef %v, ptr noundef %name, ptr noundef %obj) #10
  br label %trace_visit_type_int16.exit

if.else.i.i:                                      ; preds = %if.then.i.i
  tail call void (ptr, ...) @qemu_log(ptr noundef nonnull @.str.65, ptr noundef %v, ptr noundef %name, ptr noundef %obj) #10
  br label %trace_visit_type_int16.exit

trace_visit_type_int16.exit:                      ; preds = %entry, %land.lhs.true5.i.i, %if.then8.i.i, %if.else.i.i
  call void @llvm.lifetime.end.p0(i64 16, ptr nonnull %_now.i.i)
  %6 = load i16, ptr %obj, align 2
  %conv = sext i16 %6 to i64
  call void @llvm.lifetime.start.p0(i64 8, ptr nonnull %value.i)
  store i64 %conv, ptr %value.i, align 8
  %type1.i = getelementptr inbounds nuw i8, ptr %v, i64 160
  %type_int64.i = getelementptr inbounds nuw i8, ptr %v, i64 72
  %7 = load ptr, ptr %type_int64.i, align 8
  %call.i = call zeroext i1 %7(ptr noundef nonnull %v, ptr noundef %name, ptr noundef nonnull %value.i, ptr noundef %errp) #10
  br i1 %call.i, label %if.end5.i, label %visit_type_intN.exit

if.end5.i:                                        ; preds = %trace_visit_type_int16.exit
  %8 = load i64, ptr %value.i, align 8
  %9 = add i64 %8, -32768
  %or.cond11.i = icmp ult i64 %9, -65536
  br i1 %or.cond11.i, label %if.then9.i, label %visit_type_intN.exit

if.then9.i:                                       ; preds = %if.end5.i
  %10 = load i32, ptr %type1.i, align 8
  %cmp11.i = icmp eq i32 %10, 1
  br i1 %cmp11.i, label %if.end14.i, label %if.else13.i

if.else13.i:                                      ; preds = %if.then9.i
  call void @__assert_fail(ptr noundef nonnull @.str.52, ptr noundef nonnull @.str.1, i32 noundef 264, ptr noundef nonnull @__PRETTY_FUNCTION__.visit_type_intN) #9
  unreachable

if.end14.i:                                       ; preds = %if.then9.i
  %tobool.not.i = icmp eq ptr %name, null
  %cond.i = select i1 %tobool.not.i, ptr @.str.54, ptr %name
  call void (ptr, ptr, i32, ptr, ptr, ...) @error_setg_internal(ptr noundef %errp, ptr noundef nonnull @.str.1, i32 noundef 266, ptr noundef nonnull @__func__.visit_type_intN, ptr noundef nonnull @.str.53, ptr noundef nonnull %cond.i, ptr noundef nonnull @.str.15) #10
  br label %visit_type_intN.exit

visit_type_intN.exit:                             ; preds = %if.end5.i, %trace_visit_type_int16.exit, %if.end14.i
  %value.0 = phi i64 [ %conv, %if.end14.i ], [ %conv, %trace_visit_type_int16.exit ], [ %8, %if.end5.i ]
  %retval.0.i = phi i1 [ false, %if.end14.i ], [ false, %trace_visit_type_int16.exit ], [ true, %if.end5.i ]
  call void @llvm.lifetime.end.p0(i64 8, ptr nonnull %value.i)
  %conv1 = trunc i64 %value.0 to i16
  store i16 %conv1, ptr %obj, align 2
  ret i1 %retval.0.i
}